target datalayout = "e-m:e-p270:32:32-p271:32:32-p272:64:64-i64:64-i128:128-f80:128-n8:16:32:64-S128"
target triple = "x86_64-pc-linux-gnu"

%"struct.pkpy::Str" = type { i32, i8, ptr, [16 x i8] }
%"class.pkpy::REPL" = type { i32, %"class.std::__cxx11::basic_string", ptr }
%"class.std::__cxx11::basic_string" = type { %"struct.std::__cxx11::basic_string<char>::_Alloc_hider", i64, %union.anon }
%"struct.std::__cxx11::basic_string<char>::_Alloc_hider" = type { ptr }
%union.anon = type { i64, [8 x i8] }
%"class.std::basic_string_view" = type { i64, ptr }
%"struct.pkpy::NeedMoreLines" = type { i8 }

@_ZTIN4pkpy13NeedMoreLinesE = linkonce_odr constant { ptr, ptr } { ptr getelementptr inbounds (ptr, ptr @_ZTVN10__cxxabiv117__class_type_infoE, i64 2), ptr @_ZTSN4pkpy13NeedMoreLinesE }, comdat, align 8
@.str.6 = private unnamed_addr constant [8 x i8] c"<stdin>\00", align 1

; Function Attrs: mustprogress uwtable
define noundef zeroext i1 @_ZN4pkpy4REPL5inputENSt7__cxx1112basic_stringIcSt11char_traitsIcESaIcEEE(ptr noundef nonnull align 8 dereferenceable(48) %0, ptr noundef %1) #4 align 2 personality ptr @__gxx_personality_v0 {
  %3 = alloca i1, align 1
  %4 = alloca ptr, align 8
  %5 = alloca ptr, align 8
  %6 = alloca i32, align 4
  %7 = alloca i32, align 4
  %8 = alloca i32, align 4
  %9 = alloca %"class.std::basic_string_view", align 8
  %10 = alloca %"struct.pkpy::Str", align 8
  %11 = alloca ptr, align 8
  %12 = alloca i32, align 4
  %13 = alloca %"struct.pkpy::NeedMoreLines", align 1
  %14 = alloca i32, align 4
  store ptr %0, ptr %4, align 8
  store ptr %1, ptr %5, align 8
  %15 = load ptr, ptr %4, align 8
  store i32 2, ptr %6, align 4
  %16 = getelementptr inbounds %"class.pkpy::REPL", ptr %15, i32 0, i32 0
  %17 = load i32, ptr %16, align 8
  %18 = icmp ne i32 %17, 0
  br i1 %18, label %19, label %65

19:                                               ; preds = %2
  %20 = getelementptr inbounds %"class.pkpy::REPL", ptr %15, i32 0, i32 1
  %21 = call noundef nonnull align 8 dereferenceable(32) ptr @_ZNSt7__cxx1112basic_stringIcSt11char_traitsIcESaIcEEpLERKS4_(ptr noundef nonnull align 8 dereferenceable(32) %20, ptr noundef nonnull align 8 dereferenceable(32) %1)
  %22 = getelementptr inbounds %"class.pkpy::REPL", ptr %15, i32 0, i32 1
  %23 = call noundef nonnull align 8 dereferenceable(32) ptr @_ZNSt7__cxx1112basic_stringIcSt11char_traitsIcESaIcEEpLEc(ptr noundef nonnull align 8 dereferenceable(32) %22, i8 noundef signext 10)
  %24 = getelementptr inbounds %"class.pkpy::REPL", ptr %15, i32 0, i32 1
  %25 = call noundef i64 @_ZNKSt7__cxx1112basic_stringIcSt11char_traitsIcESaIcEE4sizeEv(ptr noundef nonnull align 8 dereferenceable(32) %24) #3
  %26 = trunc i64 %25 to i32
  store i32 %26, ptr %7, align 4
  %27 = load i32, ptr %7, align 4
  %28 = getelementptr inbounds %"class.pkpy::REPL", ptr %15, i32 0, i32 0
  %29 = load i32, ptr %28, align 8
  %30 = icmp sge i32 %27, %29
  br i1 %30, label %31, label %63

31:                                               ; preds = %19
  %32 = getelementptr inbounds %"class.pkpy::REPL", ptr %15, i32 0, i32 1
  %33 = call noundef i64 @_ZNKSt7__cxx1112basic_stringIcSt11char_traitsIcESaIcEE4sizeEv(ptr noundef nonnull align 8 dereferenceable(32) %32) #3
  %34 = getelementptr inbounds %"class.pkpy::REPL", ptr %15, i32 0, i32 0
  %35 = load i32, ptr %34, align 8
  %36 = sext i32 %35 to i64
  %37 = sub i64 %33, %36
  %38 = trunc i64 %37 to i32
  store i32 %38, ptr %8, align 4
  br label %39

39:                                               ; preds = %55, %31
  %40 = load i32, ptr %8, align 4
  %41 = sext i32 %40 to i64
  %42 = getelementptr inbounds %"class.pkpy::REPL", ptr %15, i32 0, i32 1
  %43 = call noundef i64 @_ZNKSt7__cxx1112basic_stringIcSt11char_traitsIcESaIcEE4sizeEv(ptr noundef nonnull align 8 dereferenceable(32) %42) #3
  %44 = icmp ult i64 %41, %43
  br i1 %44, label %45, label %58

45:                                               ; preds = %39
  %46 = getelementptr inbounds %"class.pkpy::REPL", ptr %15, i32 0, i32 1
  %47 = load i32, ptr %8, align 4
  %48 = sext i32 %47 to i64
  %49 = call noundef nonnull align 1 dereferenceable(1) ptr @_ZNSt7__cxx1112basic_stringIcSt11char_traitsIcESaIcEEixEm(ptr noundef nonnull align 8 dereferenceable(32) %46, i64 noundef %48)
  %50 = load i8, ptr %49, align 1
  %51 = sext i8 %50 to i32
  %52 = icmp ne i32 %51, 10
  br i1 %52, label %53, label %54

53:                                               ; preds = %45
  store i1 true, ptr %3, align 1
  br label %121

54:                                               ; preds = %45
  br label %55

55:                                               ; preds = %54
  %56 = load i32, ptr %8, align 4
  %57 = add nsw i32 %56, 1
  store i32 %57, ptr %8, align 4
  br label %39, !llvm.loop !4

58:                                               ; preds = %39
  %59 = getelementptr inbounds %"class.pkpy::REPL", ptr %15, i32 0, i32 0
  store i32 0, ptr %59, align 8
  %60 = getelementptr inbounds %"class.pkpy::REPL", ptr %15, i32 0, i32 1
  %61 = call noundef nonnull align 8 dereferenceable(32) ptr @_ZNSt7__cxx1112basic_stringIcSt11char_traitsIcESaIcEEaSERKS4_(ptr noundef nonnull align 8 dereferenceable(32) %1, ptr noundef nonnull align 8 dereferenceable(32) %60)
  %62 = getelementptr inbounds %"class.pkpy::REPL", ptr %15, i32 0, i32 1
  call void @_ZNSt7__cxx1112basic_stringIcSt11char_traitsIcESaIcEE5clearEv(ptr noundef nonnull align 8 dereferenceable(32) %62) #3
  store i32 4, ptr %6, align 4
  br label %64

63:                                               ; preds = %19
  store i1 true, ptr %3, align 1
  br label %121

64:                                               ; preds = %58
  br label %65

65:                                               ; preds = %64, %2
  %66 = getelementptr inbounds %"class.pkpy::REPL", ptr %15, i32 0, i32 2
  %67 = load ptr, ptr %66, align 8
  %68 = call { i64, ptr } @_ZNKSt7__cxx1112basic_stringIcSt11char_traitsIcESaIcEEcvSt17basic_string_viewIcS2_EEv(ptr noundef nonnull align 8 dereferenceable(32) %1) #3
  %69 = getelementptr inbounds { i64, ptr }, ptr %9, i32 0, i32 0
  %70 = extractvalue { i64, ptr } %68, 0
  store i64 %70, ptr %69, align 8
  %71 = getelementptr inbounds { i64, ptr }, ptr %9, i32 0, i32 1
  %72 = extractvalue { i64, ptr } %68, 1
  store ptr %72, ptr %71, align 8
  invoke void @_ZN4pkpy3StrC1EPKc(ptr noundef nonnull align 8 dereferenceable(32) %10, ptr noundef @.str.6)
          to label %73 unwind label %81

73:                                               ; preds = %65
  %74 = load i32, ptr %6, align 4
  %75 = getelementptr inbounds { i64, ptr }, ptr %9, i32 0, i32 0
  %76 = load i64, ptr %75, align 8
  %77 = getelementptr inbounds { i64, ptr }, ptr %9, i32 0, i32 1
  %78 = load ptr, ptr %77, align 8
  %79 = invoke noundef ptr @_ZN4pkpy2VM4execESt17basic_string_viewIcSt11char_traitsIcEENS_3StrENS_11CompileModeEPNS_8PyObjectE(ptr noundef nonnull align 8 dereferenceable(264913) %67, i64 %76, ptr %78, ptr noundef %10, i32 noundef %74, ptr noundef null)
          to label %80 unwind label %85

80:                                               ; preds = %73
  call void @_ZN4pkpy3StrD1Ev(ptr noundef nonnull align 8 dereferenceable(32) %10) #3
  br label %119

81:                                               ; preds = %65
  %82 = landingpad { ptr, i32 }
          catch ptr @_ZTIN4pkpy13NeedMoreLinesE
  %83 = extractvalue { ptr, i32 } %82, 0
  store ptr %83, ptr %11, align 8
  %84 = extractvalue { ptr, i32 } %82, 1
  store i32 %84, ptr %12, align 4
  br label %89

85:                                               ; preds = %73
  %86 = landingpad { ptr, i32 }
          cleanup
          catch ptr @_ZTIN4pkpy13NeedMoreLinesE
  %87 = extractvalue { ptr, i32 } %86, 0
  store ptr %87, ptr %11, align 8
  %88 = extractvalue { ptr, i32 } %86, 1
  store i32 %88, ptr %12, align 4
  call void @_ZN4pkpy3StrD1Ev(ptr noundef nonnull align 8 dereferenceable(32) %10) #3
  br label %89

89:                                               ; preds = %85, %81
  %90 = load i32, ptr %12, align 4
  %91 = call i32 @llvm.eh.typeid.for.p0(ptr @_ZTIN4pkpy13NeedMoreLinesE) #3
  %92 = icmp eq i32 %90, %91
  br i1 %92, label %93, label %123

93:                                               ; preds = %89
  %94 = load ptr, ptr %11, align 8
  %95 = call ptr @__cxa_begin_catch(ptr %94) #3
  call void @llvm.memcpy.p0.p0.i64(ptr align 1 %13, ptr align 1 %95, i64 1, i1 false)
  %96 = getelementptr inbounds %"class.pkpy::REPL", ptr %15, i32 0, i32 1
  %97 = invoke noundef nonnull align 8 dereferenceable(32) ptr @_ZNSt7__cxx1112basic_stringIcSt11char_traitsIcESaIcEEpLERKS4_(ptr noundef nonnull align 8 dereferenceable(32) %96, ptr noundef nonnull align 8 dereferenceable(32) %1)
          to label %98 unwind label %111

98:                                               ; preds = %93
  %99 = getelementptr inbounds %"class.pkpy::REPL", ptr %15, i32 0, i32 1
  %100 = invoke noundef nonnull align 8 dereferenceable(32) ptr @_ZNSt7__cxx1112basic_stringIcSt11char_traitsIcESaIcEEpLEc(ptr noundef nonnull align 8 dereferenceable(32) %99, i8 noundef signext 10)
          to label %101 unwind label %111

101:                                              ; preds = %98
  %102 = getelementptr inbounds %"struct.pkpy::NeedMoreLines", ptr %13, i32 0, i32 0
  %103 = load i8, ptr %102, align 1
  %104 = trunc i8 %103 to i1
  %105 = select i1 %104, i32 3, i32 2
  %106 = getelementptr inbounds %"class.pkpy::REPL", ptr %15, i32 0, i32 0
  store i32 %105, ptr %106, align 8
  %107 = getelementptr inbounds %"class.pkpy::REPL", ptr %15, i32 0, i32 0
  %108 = load i32, ptr %107, align 8
  %109 = icmp ne i32 %108, 0
  br i1 %109, label %110, label %115

110:                                              ; preds = %101
  store i1 true, ptr %3, align 1
  store i32 1, ptr %14, align 4
  br label %116

111:                                              ; preds = %98, %93
  %112 = landingpad { ptr, i32 }
          cleanup
  %113 = extractvalue { ptr, i32 } %112, 0
  store ptr %113, ptr %11, align 8
  %114 = extractvalue { ptr, i32 } %112, 1
  store i32 %114, ptr %12, align 4
  invoke void @__cxa_end_catch()
          to label %120 unwind label %128

115:                                              ; preds = %101
  store i32 0, ptr %14, align 4
  br label %116

116:                                              ; preds = %115, %110
  call void @__cxa_end_catch()
  %117 = load i32, ptr %14, align 4
  switch i32 %117, label %131 [
    i32 0, label %118
    i32 1, label %121
  ]

118:                                              ; preds = %116
  br label %119

119:                                              ; preds = %118, %80
  store i1 false, ptr %3, align 1
  br label %121

120:                                              ; preds = %111
  br label %123

121:                                              ; preds = %119, %116, %63, %53
  %122 = load i1, ptr %3, align 1
  ret i1 %122

123:                                              ; preds = %120, %89
  %124 = load ptr, ptr %11, align 8
  %125 = load i32, ptr %12, align 4
  %126 = insertvalue { ptr, i32 } poison, ptr %124, 0
  %127 = insertvalue { ptr, i32 } %126, i32 %125, 1
  resume { ptr, i32 } %127

128:                                              ; preds = %111
  %129 = landingpad { ptr, i32 }
          catch ptr null
  %130 = extractvalue { ptr, i32 } %129, 0
  call void @__clang_call_terminate(ptr %130) #9
  unreachable

131:                                              ; preds = %116
  unreachable
}