; Function Attrs: mustprogress uwtable
define noundef zeroext i1 @_ZN4pkpy4REPL5inputENSt7__cxx1112basic_stringIcSt11char_traitsIcESaIcEEE(ptr noundef nonnull align 8 dereferenceable(48) %0, ptr noundef %1) local_unnamed_addr #3 align 2 personality ptr @__gxx_personality_v0 {
  %3 = alloca %"struct.pkpy::Str", align 8
  %4 = load i32, ptr %0, align 8
  %.not = icmp eq i32 %4, 0
  br i1 %.not, label %26, label %5

5:                                                ; preds = %2
  %6 = getelementptr inbounds i8, ptr %0, i64 8
  %7 = tail call noundef nonnull align 8 dereferenceable(32) ptr @_ZNSt7__cxx1112basic_stringIcSt11char_traitsIcESaIcEEpLERKS4_(ptr noundef nonnull align 8 dereferenceable(32) %6, ptr noundef nonnull align 8 dereferenceable(32) %1)
  %8 = tail call noundef nonnull align 8 dereferenceable(32) ptr @_ZNSt7__cxx1112basic_stringIcSt11char_traitsIcESaIcEEpLEc(ptr noundef nonnull align 8 dereferenceable(32) %6, i8 noundef signext 10)
  %9 = tail call noundef i64 @_ZNKSt7__cxx1112basic_stringIcSt11char_traitsIcESaIcEE4sizeEv(ptr noundef nonnull align 8 dereferenceable(32) %6) #7
  %10 = trunc i64 %9 to i32
  %11 = load i32, ptr %0, align 8
  %.not20 = icmp sgt i32 %11, %10
  br i1 %.not20, label %.loopexit, label %12

12:                                               ; preds = %5
  %13 = tail call noundef i64 @_ZNKSt7__cxx1112basic_stringIcSt11char_traitsIcESaIcEE4sizeEv(ptr noundef nonnull align 8 dereferenceable(32) %6) #7
  %14 = load i32, ptr %0, align 8
  %15 = trunc i64 %13 to i32
  %16 = sub i32 %15, %14
  %17 = sext i32 %16 to i64
  %18 = tail call noundef i64 @_ZNKSt7__cxx1112basic_stringIcSt11char_traitsIcESaIcEE4sizeEv(ptr noundef nonnull align 8 dereferenceable(32) %6) #7
  %19 = icmp ugt i64 %18, %17
  br i1 %19, label %.lr.ph, label %._crit_edge

20:                                               ; preds = %.lr.ph
  %indvars.iv.next = add nuw nsw i64 %indvars.iv, 1
  %21 = tail call noundef i64 @_ZNKSt7__cxx1112basic_stringIcSt11char_traitsIcESaIcEE4sizeEv(ptr noundef nonnull align 8 dereferenceable(32) %6) #7
  %22 = icmp ugt i64 %21, %indvars.iv.next
  br i1 %22, label %.lr.ph, label %._crit_edge, !llvm.loop !4

.lr.ph:                                           ; preds = %12, %20
  %indvars.iv = phi i64 [ %indvars.iv.next, %20 ], [ %17, %12 ]
  %23 = tail call noundef nonnull align 1 dereferenceable(1) ptr @_ZNSt7__cxx1112basic_stringIcSt11char_traitsIcESaIcEEixEm(ptr noundef nonnull align 8 dereferenceable(32) %6, i64 noundef %indvars.iv)
  %24 = load i8, ptr %23, align 1
  %.not22 = icmp eq i8 %24, 10
  br i1 %.not22, label %20, label %.loopexit

._crit_edge:                                      ; preds = %20, %12
  store i32 0, ptr %0, align 8
  %25 = tail call noundef nonnull align 8 dereferenceable(32) ptr @_ZNSt7__cxx1112basic_stringIcSt11char_traitsIcESaIcEEaSERKS4_(ptr noundef nonnull align 8 dereferenceable(32) %1, ptr noundef nonnull align 8 dereferenceable(32) %6)
  tail call void @_ZNSt7__cxx1112basic_stringIcSt11char_traitsIcESaIcEE5clearEv(ptr noundef nonnull align 8 dereferenceable(32) %6) #7
  br label %26

26:                                               ; preds = %._crit_edge, %2
  %.017 = phi i32 [ 4, %._crit_edge ], [ 2, %2 ]
  %27 = getelementptr inbounds i8, ptr %0, i64 40
  %28 = load ptr, ptr %27, align 8
  %29 = tail call { i64, ptr } @_ZNKSt7__cxx1112basic_stringIcSt11char_traitsIcESaIcEEcvSt17basic_string_viewIcS2_EEv(ptr noundef nonnull align 8 dereferenceable(32) %1) #7
  invoke void @_ZN4pkpy3StrC1EPKc(ptr noundef nonnull align 8 dereferenceable(32) %3, ptr noundef nonnull @.str.6)
          to label %30 unwind label %35

30:                                               ; preds = %26
  %31 = extractvalue { i64, ptr } %29, 1
  %32 = extractvalue { i64, ptr } %29, 0
  %33 = invoke noundef ptr @_ZN4pkpy2VM4execESt17basic_string_viewIcSt11char_traitsIcEENS_3StrENS_11CompileModeEPNS_8PyObjectE(ptr noundef nonnull align 8 dereferenceable(264913) %28, i64 %32, ptr %31, ptr noundef nonnull %3, i32 noundef %.017, ptr noundef null)
          to label %34 unwind label %37

34:                                               ; preds = %30
  call void @_ZN4pkpy3StrD1Ev(ptr noundef nonnull align 8 dereferenceable(32) %3) #7
  br label %.loopexit

35:                                               ; preds = %26
  %36 = landingpad { ptr, i32 }
          catch ptr @_ZTIN4pkpy13NeedMoreLinesE
  br label %39

37:                                               ; preds = %30
  %38 = landingpad { ptr, i32 }
          cleanup
          catch ptr @_ZTIN4pkpy13NeedMoreLinesE
  call void @_ZN4pkpy3StrD1Ev(ptr noundef nonnull align 8 dereferenceable(32) %3) #7
  br label %39

39:                                               ; preds = %37, %35
  %.pn = phi { ptr, i32 } [ %38, %37 ], [ %36, %35 ]
  %.013 = extractvalue { ptr, i32 } %.pn, 1
  %40 = call i32 @llvm.eh.typeid.for.p0(ptr nonnull @_ZTIN4pkpy13NeedMoreLinesE) #7
  %41 = icmp eq i32 %.013, %40
  br i1 %41, label %42, label %53

42:                                               ; preds = %39
  %.015 = extractvalue { ptr, i32 } %.pn, 0
  %43 = call ptr @__cxa_begin_catch(ptr %.015) #7
  %.sroa.0.0.copyload = load i8, ptr %43, align 1
  %44 = getelementptr inbounds i8, ptr %0, i64 8
  %45 = invoke noundef nonnull align 8 dereferenceable(32) ptr @_ZNSt7__cxx1112basic_stringIcSt11char_traitsIcESaIcEEpLERKS4_(ptr noundef nonnull align 8 dereferenceable(32) %44, ptr noundef nonnull align 8 dereferenceable(32) %1)
          to label %46 unwind label %51

46:                                               ; preds = %42
  %47 = invoke noundef nonnull align 8 dereferenceable(32) ptr @_ZNSt7__cxx1112basic_stringIcSt11char_traitsIcESaIcEEpLEc(ptr noundef nonnull align 8 dereferenceable(32) %44, i8 noundef signext 10)
          to label %48 unwind label %51

48:                                               ; preds = %46
  %49 = trunc i8 %.sroa.0.0.copyload to i1
  %50 = select i1 %49, i32 3, i32 2
  store i32 %50, ptr %0, align 8
  call void @__cxa_end_catch()
  br label %.loopexit

51:                                               ; preds = %46, %42
  %52 = landingpad { ptr, i32 }
          cleanup
  invoke void @__cxa_end_catch()
          to label %53 unwind label %54

.loopexit:                                        ; preds = %.lr.ph, %5, %48, %34
  %.1 = phi i1 [ false, %34 ], [ true, %48 ], [ true, %5 ], [ true, %.lr.ph ]
  ret i1 %.1

53:                                               ; preds = %51, %39
  %.merged = phi { ptr, i32 } [ %52, %51 ], [ %.pn, %39 ]
  resume { ptr, i32 } %.merged

54:                                               ; preds = %51
  %55 = landingpad { ptr, i32 }
          catch ptr null
  %56 = extractvalue { ptr, i32 } %55, 0
  call void @__clang_call_terminate(ptr %56) #8
  unreachable
}